; Function Attrs: nounwind uwtable
define internal fastcc noundef ptr @_readCreateSeqStmt() unnamed_addr #0 {
  %1 = alloca i32, align 4
  %2 = tail call noundef ptr @palloc0(i64 noundef 32) #10
  store i32 188, ptr %2, align 4
  call void @llvm.lifetime.start.p0(i64 4, ptr nonnull %1) #10
  %3 = call ptr @pg_strtok(ptr noundef nonnull %1) #10
  %4 = call ptr @nodeRead(ptr noundef null, i32 noundef 0) #10
  %5 = getelementptr inbounds nuw i8, ptr %2, i64 8
  store ptr %4, ptr %5, align 8
  %6 = call ptr @pg_strtok(ptr noundef nonnull %1) #10
  %7 = call ptr @nodeRead(ptr noundef null, i32 noundef 0) #10
  %8 = getelementptr inbounds nuw i8, ptr %2, i64 16
  store ptr %7, ptr %8, align 8
  %9 = call ptr @pg_strtok(ptr noundef nonnull %1) #10
  %10 = call ptr @pg_strtok(ptr noundef nonnull %1) #10
  %11 = call i64 @strtoul(ptr noundef captures(none) %10, ptr noundef null, i32 noundef 10) #10
  %12 = trunc i64 %11 to i32
  %13 = getelementptr inbounds nuw i8, ptr %2, i64 24
  store i32 %12, ptr %13, align 8
  %14 = call ptr @pg_strtok(ptr noundef nonnull %1) #10
  %15 = call ptr @pg_strtok(ptr noundef nonnull %1) #10
  %16 = load i8, ptr %15, align 1
  %17 = icmp eq i8 %16, 116
  %18 = getelementptr inbounds nuw i8, ptr %2, i64 28
  %19 = zext i1 %17 to i8
  store i8 %19, ptr %18, align 4
  %20 = call ptr @pg_strtok(ptr noundef nonnull %1) #10
  %21 = call ptr @pg_strtok(ptr noundef nonnull %1) #10
  %22 = load i8, ptr %21, align 1
  %23 = icmp eq i8 %22, 116
  %24 = getelementptr inbounds nuw i8, ptr %2, i64 29
  %25 = zext i1 %23 to i8
  store i8 %25, ptr %24, align 1
  call void @llvm.lifetime.end.p0(i64 4, ptr nonnull %1) #10
  ret ptr %2
}